target datalayout = "e-m:e-p270:32:32-p271:32:32-p272:64:64-i64:64-i128:128-f80:128-n8:16:32:64-S128"
target triple = "x86_64-pc-linux-gnu"

%struct.lxb_encoding_single_index_t = type { [4 x i8], i32, i32 }
%struct.lxb_encoding_decode_t = type { ptr, ptr, i64, i64, ptr, i64, i32, i32, i8, i8, i32, %union.anon }
%union.anon = type { %struct.lxb_encoding_ctx_2022_jp_t }
%struct.lxb_encoding_ctx_2022_jp_t = type { i8, i8, i32, i32, i8 }

@lxb_encoding_multi_index_euc_kr = external constant [23750 x %struct.lxb_encoding_single_index_t], align 16

; Function Attrs: nounwind uwtable
define hidden i32 @lxb_encoding_decode_euc_kr_single(ptr noundef %0, ptr noundef %1, ptr noundef %2) #0 {
  %4 = alloca i32, align 4
  %5 = alloca ptr, align 8
  %6 = alloca ptr, align 8
  %7 = alloca ptr, align 8
  %8 = alloca i8, align 1
  %9 = alloca i8, align 1
  %10 = alloca i32, align 4
  store ptr %0, ptr %5, align 8, !tbaa !4
  store ptr %1, ptr %6, align 8, !tbaa !8
  store ptr %2, ptr %7, align 8, !tbaa !10
  call void @llvm.lifetime.start.p0(i64 1, ptr %8) #5
  call void @llvm.lifetime.start.p0(i64 1, ptr %9) #5
  %11 = load ptr, ptr %5, align 8, !tbaa !4
  %12 = getelementptr inbounds nuw %struct.lxb_encoding_decode_t, ptr %11, i32 0, i32 11
  %13 = load i32, ptr %12, align 8, !tbaa !27
  %14 = icmp ne i32 %13, 0
  br i1 %14, label %15, label %22

15:                                               ; preds = %3
  %16 = load ptr, ptr %5, align 8, !tbaa !4
  %17 = getelementptr inbounds nuw %struct.lxb_encoding_decode_t, ptr %16, i32 0, i32 11
  %18 = load i32, ptr %17, align 8, !tbaa !27
  %19 = trunc i32 %18 to i8
  store i8 %19, ptr %8, align 1, !tbaa !27
  %20 = load ptr, ptr %5, align 8, !tbaa !4
  %21 = getelementptr inbounds nuw %struct.lxb_encoding_decode_t, ptr %20, i32 0, i32 11
  store i32 0, ptr %21, align 8, !tbaa !27
  br label %50

22:                                               ; preds = %3
  %23 = load ptr, ptr %6, align 8, !tbaa !8
  %24 = load ptr, ptr %23, align 8, !tbaa !10
  %25 = getelementptr inbounds nuw i8, ptr %24, i32 1
  store ptr %25, ptr %23, align 8, !tbaa !10
  %26 = load i8, ptr %24, align 1, !tbaa !27
  store i8 %26, ptr %8, align 1, !tbaa !27
  %27 = load i8, ptr %8, align 1, !tbaa !27
  %28 = zext i8 %27 to i32
  %29 = icmp slt i32 %28, 128
  br i1 %29, label %30, label %33

30:                                               ; preds = %22
  %31 = load i8, ptr %8, align 1, !tbaa !27
  %32 = zext i8 %31 to i32
  store i32 %32, ptr %4, align 4
  store i32 1, ptr %10, align 4
  br label %105

33:                                               ; preds = %22
  %34 = load i8, ptr %8, align 1, !tbaa !27
  %35 = zext i8 %34 to i32
  %36 = sub nsw i32 %35, 129
  %37 = icmp ugt i32 %36, 125
  br i1 %37, label %38, label %39

38:                                               ; preds = %33
  store i32 2097151, ptr %4, align 4
  store i32 1, ptr %10, align 4
  br label %105

39:                                               ; preds = %33
  %40 = load ptr, ptr %6, align 8, !tbaa !8
  %41 = load ptr, ptr %40, align 8, !tbaa !10
  %42 = load ptr, ptr %7, align 8, !tbaa !10
  %43 = icmp eq ptr %41, %42
  br i1 %43, label %44, label %49

44:                                               ; preds = %39
  %45 = load i8, ptr %8, align 1, !tbaa !27
  %46 = zext i8 %45 to i32
  %47 = load ptr, ptr %5, align 8, !tbaa !4
  %48 = getelementptr inbounds nuw %struct.lxb_encoding_decode_t, ptr %47, i32 0, i32 11
  store i32 %46, ptr %48, align 8, !tbaa !27
  store i32 3145727, ptr %4, align 4
  store i32 1, ptr %10, align 4
  br label %105

49:                                               ; preds = %39
  br label %50

50:                                               ; preds = %49, %15
  %51 = load ptr, ptr %6, align 8, !tbaa !8
  %52 = load ptr, ptr %51, align 8, !tbaa !10
  %53 = getelementptr inbounds nuw i8, ptr %52, i32 1
  store ptr %53, ptr %51, align 8, !tbaa !10
  %54 = load i8, ptr %52, align 1, !tbaa !27
  store i8 %54, ptr %9, align 1, !tbaa !27
  %55 = load i8, ptr %9, align 1, !tbaa !27
  %56 = zext i8 %55 to i32
  %57 = sub nsw i32 %56, 65
  %58 = icmp ugt i32 %57, 189
  br i1 %58, label %59, label %60

59:                                               ; preds = %50
  br label %96

60:                                               ; preds = %50
  %61 = load i8, ptr %8, align 1, !tbaa !27
  %62 = zext i8 %61 to i32
  %63 = sub nsw i32 %62, 129
  %64 = mul nsw i32 %63, 190
  %65 = load i8, ptr %9, align 1, !tbaa !27
  %66 = zext i8 %65 to i32
  %67 = sub nsw i32 %66, 65
  %68 = add nsw i32 %64, %67
  %69 = load ptr, ptr %5, align 8, !tbaa !4
  %70 = getelementptr inbounds nuw %struct.lxb_encoding_decode_t, ptr %69, i32 0, i32 6
  store i32 %68, ptr %70, align 8, !tbaa !29
  %71 = load ptr, ptr %5, align 8, !tbaa !4
  %72 = getelementptr inbounds nuw %struct.lxb_encoding_decode_t, ptr %71, i32 0, i32 6
  %73 = load i32, ptr %72, align 8, !tbaa !29
  %74 = zext i32 %73 to i64
  %75 = icmp uge i64 %74, 23750
  br i1 %75, label %76, label %77

76:                                               ; preds = %60
  br label %96

77:                                               ; preds = %60
  %78 = load ptr, ptr %5, align 8, !tbaa !4
  %79 = getelementptr inbounds nuw %struct.lxb_encoding_decode_t, ptr %78, i32 0, i32 6
  %80 = load i32, ptr %79, align 8, !tbaa !29
  %81 = zext i32 %80 to i64
  %82 = getelementptr inbounds nuw [23750 x %struct.lxb_encoding_single_index_t], ptr @lxb_encoding_multi_index_euc_kr, i64 0, i64 %81
  %83 = getelementptr inbounds nuw %struct.lxb_encoding_single_index_t, ptr %82, i32 0, i32 2
  %84 = load i32, ptr %83, align 4, !tbaa !31
  %85 = load ptr, ptr %5, align 8, !tbaa !4
  %86 = getelementptr inbounds nuw %struct.lxb_encoding_decode_t, ptr %85, i32 0, i32 6
  store i32 %84, ptr %86, align 8, !tbaa !29
  %87 = load ptr, ptr %5, align 8, !tbaa !4
  %88 = getelementptr inbounds nuw %struct.lxb_encoding_decode_t, ptr %87, i32 0, i32 6
  %89 = load i32, ptr %88, align 8, !tbaa !29
  %90 = icmp eq i32 %89, 2097151
  br i1 %90, label %91, label %92

91:                                               ; preds = %77
  br label %96

92:                                               ; preds = %77
  %93 = load ptr, ptr %5, align 8, !tbaa !4
  %94 = getelementptr inbounds nuw %struct.lxb_encoding_decode_t, ptr %93, i32 0, i32 6
  %95 = load i32, ptr %94, align 8, !tbaa !29
  store i32 %95, ptr %4, align 4
  store i32 1, ptr %10, align 4
  br label %105

96:                                               ; preds = %91, %76, %59
  %97 = load i8, ptr %9, align 1, !tbaa !27
  %98 = zext i8 %97 to i32
  %99 = icmp slt i32 %98, 128
  br i1 %99, label %100, label %104

100:                                              ; preds = %96
  %101 = load ptr, ptr %6, align 8, !tbaa !8
  %102 = load ptr, ptr %101, align 8, !tbaa !10
  %103 = getelementptr inbounds i8, ptr %102, i32 -1
  store ptr %103, ptr %101, align 8, !tbaa !10
  br label %104

104:                                              ; preds = %100, %96
  store i32 2097151, ptr %4, align 4
  store i32 1, ptr %10, align 4
  br label %105

105:                                              ; preds = %104, %92, %44, %38, %30
  call void @llvm.lifetime.end.p0(i64 1, ptr %9) #5
  call void @llvm.lifetime.end.p0(i64 1, ptr %8) #5
  %106 = load i32, ptr %4, align 4
  ret i32 %106
}