; Function Attrs: mustprogress nofree norecurse nosync nounwind willreturn memory(read, argmem: readwrite, inaccessiblemem: none) uwtable
define hidden i32 @lxb_encoding_decode_euc_kr_single(ptr noundef captures(none) %0, ptr noundef captures(none) %1, ptr noundef readnone captures(address) %2) local_unnamed_addr #7 {
  %4 = getelementptr inbounds nuw i8, ptr %0, i64 64
  %5 = load i32, ptr %4, align 8, !tbaa !24
  %.not = icmp eq i32 %5, 0
  br i1 %.not, label %8, label %6

6:                                                ; preds = %3
  %7 = trunc i32 %5 to i8
  store i32 0, ptr %4, align 8, !tbaa !24
  %.pre = load ptr, ptr %1, align 8, !tbaa !4
  br label %20

8:                                                ; preds = %3
  %9 = load ptr, ptr %1, align 8, !tbaa !4
  %10 = getelementptr inbounds nuw i8, ptr %9, i64 1
  store ptr %10, ptr %1, align 8, !tbaa !4
  %11 = load i8, ptr %9, align 1, !tbaa !24
  %12 = zext i8 %11 to i32
  %13 = icmp sgt i8 %11, -1
  br i1 %13, label %42, label %14

14:                                               ; preds = %8
  %15 = add nsw i32 %12, -255
  %16 = icmp ult i32 %15, -126
  br i1 %16, label %42, label %17

17:                                               ; preds = %14
  %18 = icmp eq ptr %10, %2
  br i1 %18, label %19, label %20

19:                                               ; preds = %17
  store i32 %12, ptr %4, align 8, !tbaa !24
  br label %42

20:                                               ; preds = %17, %6
  %21 = phi ptr [ %.pre, %6 ], [ %10, %17 ]
  %.023 = phi i8 [ %7, %6 ], [ %11, %17 ]
  %22 = getelementptr inbounds nuw i8, ptr %21, i64 1
  store ptr %22, ptr %1, align 8, !tbaa !4
  %23 = load i8, ptr %21, align 1, !tbaa !24
  %24 = zext i8 %23 to i32
  %25 = add nsw i32 %24, -65
  %26 = icmp ugt i32 %25, 189
  br i1 %26, label %39, label %27

27:                                               ; preds = %20
  %28 = zext i8 %.023 to i32
  %29 = mul nuw nsw i32 %28, 190
  %30 = add nsw i32 %29, -24510
  %31 = add nsw i32 %30, %25
  %32 = getelementptr inbounds nuw i8, ptr %0, i64 48
  store i32 %31, ptr %32, align 8, !tbaa !25
  %33 = icmp ugt i32 %31, 23749
  br i1 %33, label %39, label %34

34:                                               ; preds = %27
  %35 = zext nneg i32 %31 to i64
  %36 = getelementptr inbounds nuw [23750 x %struct.lxb_encoding_single_index_t], ptr @lxb_encoding_multi_index_euc_kr, i64 0, i64 %35, i32 2
  %37 = load i32, ptr %36, align 4, !tbaa !28
  store i32 %37, ptr %32, align 8, !tbaa !25
  %38 = icmp eq i32 %37, 2097151
  br i1 %38, label %39, label %42

39:                                               ; preds = %34, %27, %20
  %40 = icmp sgt i8 %23, -1
  br i1 %40, label %41, label %42

41:                                               ; preds = %39
  store ptr %21, ptr %1, align 8, !tbaa !4
  br label %42

42:                                               ; preds = %39, %41, %34, %14, %8, %19
  %.0 = phi i32 [ 3145727, %19 ], [ %12, %8 ], [ 2097151, %14 ], [ %37, %34 ], [ 2097151, %41 ], [ 2097151, %39 ]
  ret i32 %.0
}